(dp1
I44
(dp2
S'becameSuitTime'
p3
F1495581499.5208371
sS'savedBy'
p4
NsS'track'
p5
S'l'
sS'numFloors'
p6
I4
sS'difficulty'
p7
I6
sS'state'
p8
S'suit'
p9
sS'block'
p10
I44
ssI12
(dp11
g3
F1495581499.521549
sg4
Nsg5
S'c'
sg6
I3
sg7
I5
sg8
g9
sg10
I12
ssI62
(dp12
g3
F1495581499.5219629
sg4
Nsg5
S'l'
sg6
I3
sg7
I4
sg8
g9
sg10
I62
ss.