(dp1
I24
(dp2
S'becameSuitTime'
p3
F1495581504.158567
sS'savedBy'
p4
NsS'track'
p5
S'm'
sS'numFloors'
p6
I5
sS'difficulty'
p7
I8
sS'state'
p8
S'suit'
p9
sS'block'
p10
I24
ssI25
(dp11
g3
F1495581504.1579759
sg4
Nsg5
S'l'
sg6
I4
sg7
I7
sg8
g9
sg10
I25
ssI11
(dp12
g3
F1495581504.157057
sg4
Nsg5
S's'
sg6
I5
sg7
I8
sg8
g9
sg10
I11
ssI12
(dp13
g3
F1495581504.157639
sg4
Nsg5
S'l'
sg6
I5
sg7
I8
sg8
g9
sg10
I12
ssI29
(dp14
g3
F1495581504.1583071
sg4
Nsg5
S'l'
sg6
I1
sg7
I9
sg8
g9
sg10
I29
ss.