(dp1
I56
(dp2
S'becameSuitTime'
p3
F1495581498.0417271
sS'savedBy'
p4
NsS'track'
p5
S's'
sS'numFloors'
p6
I2
sS'difficulty'
p7
I2
sS'state'
p8
S'suit'
p9
sS'block'
p10
I56
ssI35
(dp11
g3
F1495581498.041394
sg4
Nsg5
S's'
sg6
I3
sg7
I2
sg8
g9
sg10
I35
ssI29
(dp12
g3
F1495581498.0420001
sg4
Nsg5
S's'
sg6
I3
sg7
I4
sg8
g9
sg10
I29
ss.