(dp1
I32
(dp2
S'becameSuitTime'
p3
F1495581503.544486
sS'savedBy'
p4
NsS'track'
p5
S'l'
sS'numFloors'
p6
I4
sS'difficulty'
p7
I5
sS'state'
p8
S'suit'
p9
sS'block'
p10
I32
ssI17
(dp11
g3
F1495581503.5457749
sg4
Nsg5
S's'
sg6
I4
sg7
I5
sg8
g9
sg10
I17
ssI10
(dp12
g3
F1495581503.54544
sg4
Nsg5
S's'
sg6
I4
sg7
I5
sg8
g9
sg10
I10
ssI19
(dp13
g3
F1495581503.5450511
sg4
Nsg5
S's'
sg6
I3
sg7
I6
sg8
g9
sg10
I19
ss.