(dp1
I43
(dp2
S'becameSuitTime'
p3
F1495581508.196841
sS'savedBy'
p4
NsS'track'
p5
S'm'
sS'numFloors'
p6
I5
sS'difficulty'
p7
I8
sS'state'
p8
S'suit'
p9
sS'block'
p10
I43
ssI19
(dp11
g3
F1495581508.1970739
sg4
Nsg5
S'c'
sg6
I3
sg7
I6
sg8
g9
sg10
I19
ssI44
(dp12
g3
F1495581508.197396
sg4
Nsg5
S'c'
sg6
I1
sg7
I9
sg8
g9
sg10
I44
ssI22
(dp13
g3
F1495581508.1964459
sg4
Nsg5
S'l'
sg6
I1
sg7
I9
sg8
g9
sg10
I22
ss.