(dp1
I24
(dp2
S'becameSuitTime'
p3
F1495581502.8747499
sS'savedBy'
p4
NsS'track'
p5
S'c'
sS'numFloors'
p6
I4
sS'difficulty'
p7
I5
sS'state'
p8
S'suit'
p9
sS'block'
p10
I24
ssI10
(dp11
g3
F1495581502.8759899
sg4
Nsg5
S'c'
sg6
I5
sg7
I6
sg8
g9
sg10
I10
ssI20
(dp12
g3
F1495581502.8751249
sg4
Nsg5
S'c'
sg6
I4
sg7
I7
sg8
g9
sg10
I20
ssI29
(dp13
g3
F1495581502.8755009
sg4
Nsg5
S'c'
sg6
I4
sg7
I7
sg8
g9
sg10
I29
ssI15
(dp14
g3
F1495581502.8757551
sg4
Nsg5
S'c'
sg6
I5
sg7
I6
sg8
g9
sg10
I15
ss.