(dp1
I27
(dp2
S'becameSuitTime'
p3
F1495581509.503679
sS'savedBy'
p4
NsS'track'
p5
S'm'
sS'numFloors'
p6
I4
sS'difficulty'
p7
I6
sS'state'
p8
S'suit'
p9
sS'block'
p10
I27
ssI44
(dp11
g3
F1495581509.504101
sg4
Nsg5
S'm'
sg6
I4
sg7
I7
sg8
g9
sg10
I44
ss.