(dp1
I10
(dp2
S'becameSuitTime'
p3
F1496467742.1693649
sS'savedBy'
p4
NsS'track'
p5
S'l'
sS'numFloors'
p6
I3
sS'difficulty'
p7
I6
sS'state'
p8
S'suit'
p9
sS'block'
p10
I10
ssI11
(dp11
g3
F1496467742.169775
sg4
Nsg5
S'l'
sg6
I3
sg7
I4
sg8
g9
sg10
I11
ss.