(dp1
I25
(dp2
S'becameSuitTime'
p3
F1496467754.0579541
sS'savedBy'
p4
NsS'track'
p5
S'l'
sS'numFloors'
p6
I1
sS'difficulty'
p7
I9
sS'state'
p8
S'suit'
p9
sS'block'
p10
I25
ssI29
(dp11
g3
F1496467754.058352
sg4
Nsg5
S's'
sg6
I1
sg7
I9
sg8
g9
sg10
I29
ssI30
(dp12
g3
F1496467754.058156
sg4
Nsg5
S'l'
sg6
I1
sg7
I9
sg8
g9
sg10
I30
ssI23
(dp13
g3
F1496467754.0576839
sg4
Nsg5
S'l'
sg6
I4
sg7
I7
sg8
g9
sg10
I23
ss.