(dp1
I16
(dp2
S'becameSuitTime'
p3
F1496467753.479856
sS'savedBy'
p4
NsS'track'
p5
S'c'
sS'numFloors'
p6
I5
sS'difficulty'
p7
I7
sS'state'
p8
S'suit'
p9
sS'block'
p10
I16
ssI25
(dp11
g3
F1496467753.4793971
sg4
Nsg5
S'l'
sg6
I3
sg7
I5
sg8
g9
sg10
I25
ssI29
(dp12
g3
F1496467753.4789081
sg4
Nsg5
S'c'
sg6
I4
sg7
I5
sg8
g9
sg10
I29
ssI31
(dp13
g3
F1496467753.4780691
sg4
Nsg5
S'c'
sg6
I4
sg7
I7
sg8
g9
sg10
I31
ss.