(dp1
I17
(dp2
S'becameSuitTime'
p3
F1496467758.292038
sS'savedBy'
p4
NsS'track'
p5
S'c'
sS'numFloors'
p6
I1
sS'difficulty'
p7
I9
sS'state'
p8
S'suit'
p9
sS'block'
p10
I17
ssI34
(dp11
g3
F1496467758.290792
sg4
Nsg5
S'c'
sg6
I5
sg7
I7
sg8
g9
sg10
I34
ssI20
(dp12
g3
F1496467758.2916019
sg4
Nsg5
S'l'
sg6
I5
sg7
I8
sg8
g9
sg10
I20
ssI30
(dp13
g3
F1496467758.292908
sg4
Nsg5
S'c'
sg6
I5
sg7
I8
sg8
g9
sg10
I30
ssI47
(dp14
g3
F1496467758.292443
sg4
Nsg5
S'l'
sg6
I5
sg7
I7
sg8
g9
sg10
I47
ss.