(dp1
I42
(dp2
S'becameSuitTime'
p3
F1496467748.7519779
sS'savedBy'
p4
NsS'track'
p5
S'c'
sS'numFloors'
p6
I4
sS'difficulty'
p7
I4
sS'state'
p8
S'suit'
p9
sS'block'
p10
I42
ssI27
(dp11
g3
F1496467748.752399
sg4
Nsg5
S'l'
sg6
I3
sg7
I3
sg8
g9
sg10
I27
ssI52
(dp12
g3
F1496467748.752749
sg4
Nsg5
S'c'
sg6
I3
sg7
I3
sg8
g9
sg10
I52
ss.