(dp1
I48
(dp2
S'becameSuitTime'
p3
F1496467747.22752
sS'savedBy'
p4
NsS'track'
p5
S's'
sS'numFloors'
p6
I2
sS'difficulty'
p7
I3
sS'state'
p8
S'suit'
p9
sS'block'
p10
I48
ssI29
(dp11
g3
F1496467747.2283621
sg4
Nsg5
S'm'
sg6
I2
sg7
I3
sg8
g9
sg10
I29
ssI45
(dp12
g3
F1496467747.22785
sg4
Nsg5
S'm'
sg6
I2
sg7
I2
sg8
g9
sg10
I45
ss.