(dp1
I35
(dp2
S'becameSuitTime'
p3
F1496467747.878593
sS'savedBy'
p4
NsS'track'
p5
S's'
sS'numFloors'
p6
I4
sS'difficulty'
p7
I5
sS'state'
p8
S'suit'
p9
sS'block'
p10
I35
ssI38
(dp11
g3
F1496467747.8789091
sg4
Nsg5
S'm'
sg6
I4
sg7
I4
sg8
g9
sg10
I38
ss.